; Function Attrs: mustprogress uwtable
define hidden void @_ZN19OpenColorIO_v2_5dev21CameraLin2LogRendererC2ERSt10shared_ptrIKNS_9LogOpDataEE(ptr noundef nonnull align 8 dereferenceable(188) initializes((0, 12), (16, 88)) %0, ptr noundef nonnull readonly align 8 captures(none) dereferenceable(16) %1) unnamed_addr #3 align 2 personality ptr @__gxx_personality_v0 {
  %3 = getelementptr inbounds nuw i8, ptr %0, i64 8
  store float 2.000000e+00, ptr %3, align 8, !tbaa !96
  %4 = getelementptr inbounds nuw i8, ptr %0, i64 16
  tail call void @llvm.memset.p0.i64(ptr noundef nonnull align 8 dereferenceable(72) %4, i8 0, i64 72, i1 false)
  store ptr getelementptr inbounds nuw inrange(-16, 56) (i8, ptr @_ZTVN19OpenColorIO_v2_5dev21CameraLin2LogRendererE, i64 16), ptr %0, align 8, !tbaa !44
  invoke void @_ZN19OpenColorIO_v2_5dev21CameraL2LBaseRenderer10updateDataERSt10shared_ptrIKNS_9LogOpDataEE(ptr noundef nonnull align 8 dereferenceable(188) %0, ptr noundef nonnull readonly align 8 dereferenceable(16) %1)
          to label %5 unwind label %74

5:                                                ; preds = %2
  %6 = load ptr, ptr %4, align 8, !tbaa !108
  %7 = getelementptr inbounds nuw i8, ptr %6, i64 16
  %8 = load double, ptr %7, align 8, !tbaa !119
  %9 = fptrunc double %8 to float
  %10 = getelementptr inbounds nuw i8, ptr %0, i64 128
  store float %9, ptr %10, align 8, !tbaa !111
  %11 = getelementptr inbounds nuw i8, ptr %0, i64 40
  %12 = load ptr, ptr %11, align 8, !tbaa !108
  %13 = getelementptr inbounds nuw i8, ptr %12, i64 16
  %14 = load double, ptr %13, align 8, !tbaa !119
  %15 = fptrunc double %14 to float
  %16 = getelementptr inbounds nuw i8, ptr %0, i64 132
  store float %15, ptr %16, align 4, !tbaa !111
  %17 = getelementptr inbounds nuw i8, ptr %0, i64 64
  %18 = load ptr, ptr %17, align 8, !tbaa !108
  %19 = getelementptr inbounds nuw i8, ptr %18, i64 16
  %20 = load double, ptr %19, align 8, !tbaa !119
  %21 = fptrunc double %20 to float
  %22 = getelementptr inbounds nuw i8, ptr %0, i64 136
  store float %21, ptr %22, align 8, !tbaa !111
  %23 = getelementptr inbounds nuw i8, ptr %6, i64 24
  %24 = load double, ptr %23, align 8, !tbaa !119
  %25 = fptrunc double %24 to float
  %26 = getelementptr inbounds nuw i8, ptr %0, i64 140
  store float %25, ptr %26, align 4, !tbaa !111
  %27 = getelementptr inbounds nuw i8, ptr %12, i64 24
  %28 = load double, ptr %27, align 8, !tbaa !119
  %29 = fptrunc double %28 to float
  %30 = getelementptr inbounds nuw i8, ptr %0, i64 144
  store float %29, ptr %30, align 8, !tbaa !111
  %31 = getelementptr inbounds nuw i8, ptr %18, i64 24
  %32 = load double, ptr %31, align 8, !tbaa !119
  %33 = fptrunc double %32 to float
  %34 = getelementptr inbounds nuw i8, ptr %0, i64 148
  store float %33, ptr %34, align 4, !tbaa !111
  %35 = load double, ptr %6, align 8, !tbaa !119
  %36 = getelementptr inbounds nuw i8, ptr %0, i64 124
  %37 = load float, ptr %36, align 4, !tbaa !124
  %38 = fpext float %37 to double
  %39 = fdiv double %35, %38
  %40 = fptrunc double %39 to float
  %41 = getelementptr inbounds nuw i8, ptr %0, i64 152
  store float %40, ptr %41, align 8, !tbaa !111
  %42 = load double, ptr %12, align 8, !tbaa !119
  %43 = fdiv double %42, %38
  %44 = fptrunc double %43 to float
  %45 = getelementptr inbounds nuw i8, ptr %0, i64 156
  store float %44, ptr %45, align 4, !tbaa !111
  %46 = load double, ptr %18, align 8, !tbaa !119
  %47 = fdiv double %46, %38
  %48 = fptrunc double %47 to float
  %49 = getelementptr inbounds nuw i8, ptr %0, i64 160
  store float %48, ptr %49, align 8, !tbaa !111
  %50 = getelementptr inbounds nuw i8, ptr %6, i64 8
  %51 = load double, ptr %50, align 8, !tbaa !119
  %52 = fptrunc double %51 to float
  %53 = getelementptr inbounds nuw i8, ptr %0, i64 164
  store float %52, ptr %53, align 4, !tbaa !111
  %54 = getelementptr inbounds nuw i8, ptr %12, i64 8
  %55 = load double, ptr %54, align 8, !tbaa !119
  %56 = fptrunc double %55 to float
  %57 = getelementptr inbounds nuw i8, ptr %0, i64 168
  store float %56, ptr %57, align 8, !tbaa !111
  %58 = getelementptr inbounds nuw i8, ptr %18, i64 8
  %59 = load double, ptr %58, align 8, !tbaa !119
  %60 = fptrunc double %59 to float
  %61 = getelementptr inbounds nuw i8, ptr %0, i64 172
  store float %60, ptr %61, align 4, !tbaa !111
  %62 = getelementptr inbounds nuw i8, ptr %6, i64 32
  %63 = load double, ptr %62, align 8, !tbaa !119
  %64 = fptrunc double %63 to float
  %65 = getelementptr inbounds nuw i8, ptr %0, i64 176
  store float %64, ptr %65, align 8, !tbaa !111
  %66 = getelementptr inbounds nuw i8, ptr %12, i64 32
  %67 = load double, ptr %66, align 8, !tbaa !119
  %68 = fptrunc double %67 to float
  %69 = getelementptr inbounds nuw i8, ptr %0, i64 180
  store float %68, ptr %69, align 4, !tbaa !111
  %70 = getelementptr inbounds nuw i8, ptr %18, i64 32
  %71 = load double, ptr %70, align 8, !tbaa !119
  %72 = fptrunc double %71 to float
  %73 = getelementptr inbounds nuw i8, ptr %0, i64 184
  store float %72, ptr %73, align 8, !tbaa !111
  ret void

74:                                               ; preds = %2
  %75 = landingpad { ptr, i32 }
          cleanup
  tail call void @_ZN19OpenColorIO_v2_5dev15L2LBaseRendererD2Ev(ptr noundef nonnull align 8 dereferenceable(128) %0) #26
  resume { ptr, i32 } %75
}